target datalayout = "e-m:e-p270:32:32-p271:32:32-p272:64:64-i64:64-i128:128-f80:128-n8:16:32:64-S128"
target triple = "x86_64-pc-linux-gnu"

%"class.std::vector.3" = type { %"struct.std::_Vector_base.4" }
%"struct.std::_Vector_base.4" = type { %"struct.std::_Vector_base<Node *, std::allocator<Node *>>::_Vector_impl" }
%"struct.std::_Vector_base<Node *, std::allocator<Node *>>::_Vector_impl" = type { %"struct.std::_Vector_base<Node *, std::allocator<Node *>>::_Vector_impl_data" }
%"struct.std::_Vector_base<Node *, std::allocator<Node *>>::_Vector_impl_data" = type { ptr, ptr, ptr }
%struct.Edge = type { ptr, ptr, %"class.std::vector.3", %"class.std::vector.3", %"class.std::vector.3", ptr, ptr, i32, i64, i64, i8, i8, i8, i8, i64, i32, i32, i32, i64 }

; Function Attrs: mustprogress nounwind uwtable
define linkonce_odr dso_local noundef i64 @_ZNKSt6vectorIP4NodeSaIS1_EE4sizeEv(ptr noundef nonnull align 8 dereferenceable(24) %0) #1 comdat align 2 {
  %2 = alloca ptr, align 8
  store ptr %0, ptr %2, align 8, !tbaa !37
  %3 = load ptr, ptr %2, align 8
  %4 = getelementptr inbounds nuw %"struct.std::_Vector_base.4", ptr %3, i32 0, i32 0
  %5 = getelementptr inbounds nuw %"struct.std::_Vector_base<Node *, std::allocator<Node *>>::_Vector_impl_data", ptr %4, i32 0, i32 1
  %6 = load ptr, ptr %5, align 8, !tbaa !105
  %7 = getelementptr inbounds nuw %"struct.std::_Vector_base.4", ptr %3, i32 0, i32 0
  %8 = getelementptr inbounds nuw %"struct.std::_Vector_base<Node *, std::allocator<Node *>>::_Vector_impl_data", ptr %7, i32 0, i32 0
  %9 = load ptr, ptr %8, align 8, !tbaa !53
  %10 = ptrtoint ptr %6 to i64
  %11 = ptrtoint ptr %9 to i64
  %12 = sub i64 %10, %11
  %13 = sdiv exact i64 %12, 8
  ret i64 %13
}

; Function Attrs: mustprogress uwtable
define dso_local noundef zeroext i1 @_ZNK4Edge8is_phonyEv(ptr noundef nonnull align 8 dereferenceable(168) %0) #0 align 2 {
  %2 = alloca ptr, align 8
  store ptr %0, ptr %2, align 8, !tbaa !55
  %3 = load ptr, ptr %2, align 8
  %4 = getelementptr inbounds nuw %struct.Edge, ptr %3, i32 0, i32 0
  %5 = load ptr, ptr %4, align 8, !tbaa !125
  %6 = call noundef zeroext i1 @_ZNK4Rule7IsPhonyEv(ptr noundef nonnull align 8 dereferenceable(81) %5)
  ret i1 %6
}

; Function Attrs: mustprogress uwtable
define dso_local noundef zeroext i1 @_ZNK4Edge27maybe_phonycycle_diagnosticEv(ptr noundef nonnull align 8 dereferenceable(168) %0) #0 align 2 {
  %2 = alloca ptr, align 8
  store ptr %0, ptr %2, align 8, !tbaa !55
  %3 = load ptr, ptr %2, align 8
  %4 = call noundef zeroext i1 @_ZNK4Edge8is_phonyEv(ptr noundef nonnull align 8 dereferenceable(168) %3)
  br i1 %4, label %5, label %17

5:                                                ; preds = %1
  %6 = getelementptr inbounds nuw %struct.Edge, ptr %3, i32 0, i32 3
  %7 = call noundef i64 @_ZNKSt6vectorIP4NodeSaIS1_EE4sizeEv(ptr noundef nonnull align 8 dereferenceable(24) %6) #7
  %8 = icmp eq i64 %7, 1
  br i1 %8, label %9, label %17

9:                                                ; preds = %5
  %10 = getelementptr inbounds nuw %struct.Edge, ptr %3, i32 0, i32 17
  %11 = load i32, ptr %10, align 8, !tbaa !126
  %12 = icmp eq i32 %11, 0
  br i1 %12, label %13, label %17

13:                                               ; preds = %9
  %14 = getelementptr inbounds nuw %struct.Edge, ptr %3, i32 0, i32 15
  %15 = load i32, ptr %14, align 8, !tbaa !127
  %16 = icmp eq i32 %15, 0
  br label %17

17:                                               ; preds = %13, %9, %5, %1
  %18 = phi i1 [ false, %9 ], [ false, %5 ], [ false, %1 ], [ %16, %13 ]
  ret i1 %18
}