; Function Attrs: mustprogress uwtable
define dso_local noundef zeroext i1 @_ZNK4Edge27maybe_phonycycle_diagnosticEv(ptr noundef nonnull readonly align 8 captures(none) dereferenceable(168) %0) local_unnamed_addr #0 align 2 {
  %2 = load ptr, ptr %0, align 8, !tbaa !103
  %3 = tail call noundef zeroext i1 @_ZNK4Rule7IsPhonyEv(ptr noundef nonnull align 8 dereferenceable(81) %2)
  br i1 %3, label %4, label %20

4:                                                ; preds = %1
  %5 = getelementptr inbounds nuw i8, ptr %0, i64 40
  %6 = getelementptr inbounds nuw i8, ptr %0, i64 48
  %7 = load ptr, ptr %6, align 8, !tbaa !51
  %8 = load ptr, ptr %5, align 8, !tbaa !49
  %9 = ptrtoint ptr %7 to i64
  %10 = ptrtoint ptr %8 to i64
  %11 = sub i64 %9, %10
  %12 = icmp eq i64 %11, 8
  %13 = getelementptr inbounds nuw i8, ptr %0, i64 152
  %14 = load i32, ptr %13, align 8
  %15 = icmp eq i32 %14, 0
  %or.cond = select i1 %12, i1 %15, i1 false
  br i1 %or.cond, label %16, label %20

16:                                               ; preds = %4
  %17 = getelementptr inbounds nuw i8, ptr %0, i64 144
  %18 = load i32, ptr %17, align 8, !tbaa !107
  %19 = icmp eq i32 %18, 0
  br label %20

20:                                               ; preds = %16, %4, %1
  %21 = phi i1 [ false, %4 ], [ false, %1 ], [ %19, %16 ]
  ret i1 %21
}